target datalayout = "e-m:e-p270:32:32-p271:32:32-p272:64:64-i64:64-i128:128-f80:128-n8:16:32:64-S128"
target triple = "x86_64-pc-linux-gnu"

; Function Attrs: inlinehint nounwind uwtable
define internal i64 @mi_bitmap_mask_(i64 noundef %0, i64 noundef %1) #0 {
  %3 = alloca i64, align 8
  %4 = alloca i64, align 8
  %5 = alloca i64, align 8
  store i64 %0, ptr %4, align 8, !tbaa !7
  store i64 %1, ptr %5, align 8, !tbaa !7
  %6 = load i64, ptr %4, align 8, !tbaa !7
  %7 = icmp uge i64 %6, 64
  br i1 %7, label %8, label %9

8:                                                ; preds = %2
  store i64 -1, ptr %3, align 8
  br label %19

9:                                                ; preds = %2
  %10 = load i64, ptr %4, align 8, !tbaa !7
  %11 = icmp eq i64 %10, 0
  br i1 %11, label %12, label %13

12:                                               ; preds = %9
  store i64 0, ptr %3, align 8
  br label %19

13:                                               ; preds = %9
  %14 = load i64, ptr %4, align 8, !tbaa !7
  %15 = shl i64 1, %14
  %16 = sub i64 %15, 1
  %17 = load i64, ptr %5, align 8, !tbaa !7
  %18 = shl i64 %16, %17
  store i64 %18, ptr %3, align 8
  br label %19

19:                                               ; preds = %13, %12, %8
  %20 = load i64, ptr %3, align 8
  ret i64 %20
}

; Function Attrs: inlinehint nounwind uwtable
define internal i64 @mi_bitmap_index_bit_in_field(i64 noundef %0) #0 {
  %2 = alloca i64, align 8
  store i64 %0, ptr %2, align 8, !tbaa !7
  %3 = load i64, ptr %2, align 8, !tbaa !7
  %4 = urem i64 %3, 64
  ret i64 %4
}

; Function Attrs: nounwind uwtable
define internal i64 @mi_bitmap_mask_across(i64 noundef %0, i64 noundef %1, i64 noundef %2, ptr noundef %3, ptr noundef %4, ptr noundef %5) #2 {
  %7 = alloca i64, align 8
  %8 = alloca i64, align 8
  %9 = alloca i64, align 8
  %10 = alloca i64, align 8
  %11 = alloca ptr, align 8
  %12 = alloca ptr, align 8
  %13 = alloca ptr, align 8
  %14 = alloca i64, align 8
  %15 = alloca i32, align 4
  %16 = alloca i64, align 8
  %17 = alloca i64, align 8
  store i64 %0, ptr %8, align 8, !tbaa !7
  store i64 %1, ptr %9, align 8, !tbaa !7
  store i64 %2, ptr %10, align 8, !tbaa !7
  store ptr %3, ptr %11, align 8, !tbaa !9
  store ptr %4, ptr %12, align 8, !tbaa !9
  store ptr %5, ptr %13, align 8, !tbaa !9
  call void @llvm.lifetime.start.p0(i64 8, ptr %14) #5
  %18 = load i64, ptr %8, align 8, !tbaa !7
  %19 = call i64 @mi_bitmap_index_bit_in_field(i64 noundef %18) #6
  store i64 %19, ptr %14, align 8, !tbaa !7
  %20 = load i64, ptr %14, align 8, !tbaa !7
  %21 = load i64, ptr %10, align 8, !tbaa !7
  %22 = add i64 %20, %21
  %23 = icmp ule i64 %22, 64
  %24 = xor i1 %23, true
  %25 = xor i1 %24, true
  %26 = zext i1 %25 to i32
  %27 = sext i32 %26 to i64
  %28 = call i64 @llvm.expect.i64(i64 %27, i64 1)
  %29 = icmp ne i64 %28, 0
  br i1 %29, label %30, label %37

30:                                               ; preds = %6
  %31 = load i64, ptr %10, align 8, !tbaa !7
  %32 = load i64, ptr %14, align 8, !tbaa !7
  %33 = call i64 @mi_bitmap_mask_(i64 noundef %31, i64 noundef %32) #6
  %34 = load ptr, ptr %11, align 8, !tbaa !9
  store i64 %33, ptr %34, align 8, !tbaa !7
  %35 = load ptr, ptr %12, align 8, !tbaa !9
  store i64 0, ptr %35, align 8, !tbaa !7
  %36 = load ptr, ptr %13, align 8, !tbaa !9
  store i64 0, ptr %36, align 8, !tbaa !7
  store i64 0, ptr %7, align 8
  store i32 1, ptr %15, align 4
  br label %62

37:                                               ; preds = %6
  call void @llvm.lifetime.start.p0(i64 8, ptr %16) #5
  %38 = load i64, ptr %14, align 8, !tbaa !7
  %39 = sub i64 64, %38
  store i64 %39, ptr %16, align 8, !tbaa !7
  %40 = load i64, ptr %16, align 8, !tbaa !7
  %41 = load i64, ptr %14, align 8, !tbaa !7
  %42 = call i64 @mi_bitmap_mask_(i64 noundef %40, i64 noundef %41) #6
  %43 = load ptr, ptr %11, align 8, !tbaa !9
  store i64 %42, ptr %43, align 8, !tbaa !7
  %44 = load i64, ptr %16, align 8, !tbaa !7
  %45 = load i64, ptr %10, align 8, !tbaa !7
  %46 = sub i64 %45, %44
  store i64 %46, ptr %10, align 8, !tbaa !7
  call void @llvm.lifetime.start.p0(i64 8, ptr %17) #5
  %47 = load i64, ptr %10, align 8, !tbaa !7
  %48 = udiv i64 %47, 64
  store i64 %48, ptr %17, align 8, !tbaa !7
  %49 = load ptr, ptr %12, align 8, !tbaa !9
  store i64 -1, ptr %49, align 8, !tbaa !7
  %50 = load i64, ptr %10, align 8, !tbaa !7
  %51 = urem i64 %50, 64
  store i64 %51, ptr %10, align 8, !tbaa !7
  %52 = load i64, ptr %10, align 8, !tbaa !7
  %53 = icmp eq i64 %52, 0
  br i1 %53, label %54, label %55

54:                                               ; preds = %37
  br label %58

55:                                               ; preds = %37
  %56 = load i64, ptr %10, align 8, !tbaa !7
  %57 = call i64 @mi_bitmap_mask_(i64 noundef %56, i64 noundef 0) #6
  br label %58

58:                                               ; preds = %55, %54
  %59 = phi i64 [ 0, %54 ], [ %57, %55 ]
  %60 = load ptr, ptr %13, align 8, !tbaa !9
  store i64 %59, ptr %60, align 8, !tbaa !7
  %61 = load i64, ptr %17, align 8, !tbaa !7
  store i64 %61, ptr %7, align 8
  store i32 1, ptr %15, align 4
  call void @llvm.lifetime.end.p0(i64 8, ptr %17) #5
  call void @llvm.lifetime.end.p0(i64 8, ptr %16) #5
  br label %62

62:                                               ; preds = %58, %30
  call void @llvm.lifetime.end.p0(i64 8, ptr %14) #5
  %63 = load i64, ptr %7, align 8
  ret i64 %63
}

; Function Attrs: inlinehint nounwind uwtable
define internal i64 @mi_bitmap_index_field(i64 noundef %0) #0 {
  %2 = alloca i64, align 8
  store i64 %0, ptr %2, align 8, !tbaa !7
  %3 = load i64, ptr %2, align 8, !tbaa !7
  %4 = udiv i64 %3, 64
  ret i64 %4
}

; Function Attrs: nounwind uwtable
define hidden zeroext i1 @_mi_bitmap_claim_across(ptr noundef %0, i64 noundef %1, i64 noundef %2, i64 noundef %3, ptr noundef %4) #2 {
  %6 = alloca ptr, align 8
  %7 = alloca i64, align 8
  %8 = alloca i64, align 8
  %9 = alloca i64, align 8
  %10 = alloca ptr, align 8
  %11 = alloca i64, align 8
  %12 = alloca i64, align 8
  %13 = alloca i64, align 8
  %14 = alloca i64, align 8
  %15 = alloca i64, align 8
  %16 = alloca i8, align 1
  %17 = alloca i8, align 1
  %18 = alloca ptr, align 8
  %19 = alloca i64, align 8
  %20 = alloca i64, align 8
  %21 = alloca i64, align 8
  %22 = alloca i64, align 8
  %23 = alloca i64, align 8
  %24 = alloca i64, align 8
  %25 = alloca i64, align 8
  store ptr %0, ptr %6, align 8, !tbaa !3
  store i64 %1, ptr %7, align 8, !tbaa !7
  store i64 %2, ptr %8, align 8, !tbaa !7
  store i64 %3, ptr %9, align 8, !tbaa !7
  store ptr %4, ptr %10, align 8, !tbaa !19
  call void @llvm.lifetime.start.p0(i64 8, ptr %11) #5
  %26 = load i64, ptr %9, align 8, !tbaa !7
  %27 = call i64 @mi_bitmap_index_field(i64 noundef %26) #6
  store i64 %27, ptr %11, align 8, !tbaa !7
  call void @llvm.lifetime.start.p0(i64 8, ptr %12) #5
  call void @llvm.lifetime.start.p0(i64 8, ptr %13) #5
  call void @llvm.lifetime.start.p0(i64 8, ptr %14) #5
  call void @llvm.lifetime.start.p0(i64 8, ptr %15) #5
  %28 = load i64, ptr %9, align 8, !tbaa !7
  %29 = load i64, ptr %7, align 8, !tbaa !7
  %30 = load i64, ptr %8, align 8, !tbaa !7
  %31 = call i64 @mi_bitmap_mask_across(i64 noundef %28, i64 noundef %29, i64 noundef %30, ptr noundef %12, ptr noundef %13, ptr noundef %14) #6
  store i64 %31, ptr %15, align 8, !tbaa !7
  call void @llvm.lifetime.start.p0(i64 1, ptr %16) #5
  store i8 1, ptr %16, align 1, !tbaa !11
  call void @llvm.lifetime.start.p0(i64 1, ptr %17) #5
  store i8 0, ptr %17, align 1, !tbaa !11
  call void @llvm.lifetime.start.p0(i64 8, ptr %18) #5
  %32 = load ptr, ptr %6, align 8, !tbaa !3
  %33 = load i64, ptr %11, align 8, !tbaa !7
  %34 = getelementptr inbounds nuw i64, ptr %32, i64 %33
  store ptr %34, ptr %18, align 8, !tbaa !3
  call void @llvm.lifetime.start.p0(i64 8, ptr %19) #5
  %35 = load ptr, ptr %18, align 8, !tbaa !3
  %36 = getelementptr inbounds nuw i64, ptr %35, i32 1
  store ptr %36, ptr %18, align 8, !tbaa !3
  %37 = load i64, ptr %12, align 8, !tbaa !7
  store i64 %37, ptr %20, align 8, !tbaa !7
  %38 = load i64, ptr %20, align 8
  %39 = atomicrmw or ptr %35, i64 %38 acq_rel, align 8
  store i64 %39, ptr %21, align 8
  %40 = load i64, ptr %21, align 8, !tbaa !7
  store i64 %40, ptr %19, align 8, !tbaa !7
  %41 = load i64, ptr %19, align 8, !tbaa !7
  %42 = load i64, ptr %12, align 8, !tbaa !7
  %43 = and i64 %41, %42
  %44 = icmp ne i64 %43, 0
  br i1 %44, label %45, label %46

45:                                               ; preds = %5
  store i8 0, ptr %16, align 1, !tbaa !11
  br label %46

46:                                               ; preds = %45, %5
  %47 = load i64, ptr %19, align 8, !tbaa !7
  %48 = load i64, ptr %12, align 8, !tbaa !7
  %49 = and i64 %47, %48
  %50 = load i64, ptr %12, align 8, !tbaa !7
  %51 = icmp ne i64 %49, %50
  br i1 %51, label %52, label %53

52:                                               ; preds = %46
  store i8 1, ptr %17, align 1, !tbaa !11
  br label %53

53:                                               ; preds = %52, %46
  br label %54

54:                                               ; preds = %77, %53
  %55 = load i64, ptr %15, align 8, !tbaa !7
  %56 = add i64 %55, -1
  store i64 %56, ptr %15, align 8, !tbaa !7
  %57 = icmp ugt i64 %55, 0
  br i1 %57, label %58, label %78

58:                                               ; preds = %54
  %59 = load ptr, ptr %18, align 8, !tbaa !3
  %60 = getelementptr inbounds nuw i64, ptr %59, i32 1
  store ptr %60, ptr %18, align 8, !tbaa !3
  %61 = load i64, ptr %13, align 8, !tbaa !7
  store i64 %61, ptr %22, align 8, !tbaa !7
  %62 = load i64, ptr %22, align 8
  %63 = atomicrmw or ptr %59, i64 %62 acq_rel, align 8
  store i64 %63, ptr %23, align 8
  %64 = load i64, ptr %23, align 8, !tbaa !7
  store i64 %64, ptr %19, align 8, !tbaa !7
  %65 = load i64, ptr %19, align 8, !tbaa !7
  %66 = load i64, ptr %13, align 8, !tbaa !7
  %67 = and i64 %65, %66
  %68 = icmp ne i64 %67, 0
  br i1 %68, label %69, label %70

69:                                               ; preds = %58
  store i8 0, ptr %16, align 1, !tbaa !11
  br label %70

70:                                               ; preds = %69, %58
  %71 = load i64, ptr %19, align 8, !tbaa !7
  %72 = load i64, ptr %13, align 8, !tbaa !7
  %73 = and i64 %71, %72
  %74 = load i64, ptr %13, align 8, !tbaa !7
  %75 = icmp ne i64 %73, %74
  br i1 %75, label %76, label %77

76:                                               ; preds = %70
  store i8 1, ptr %17, align 1, !tbaa !11
  br label %77

77:                                               ; preds = %76, %70
  br label %54, !llvm.loop !30

78:                                               ; preds = %54
  %79 = load i64, ptr %14, align 8, !tbaa !7
  %80 = icmp ne i64 %79, 0
  br i1 %80, label %81, label %100

81:                                               ; preds = %78
  %82 = load ptr, ptr %18, align 8, !tbaa !3
  %83 = load i64, ptr %14, align 8, !tbaa !7
  store i64 %83, ptr %24, align 8, !tbaa !7
  %84 = load i64, ptr %24, align 8
  %85 = atomicrmw or ptr %82, i64 %84 acq_rel, align 8
  store i64 %85, ptr %25, align 8
  %86 = load i64, ptr %25, align 8, !tbaa !7
  store i64 %86, ptr %19, align 8, !tbaa !7
  %87 = load i64, ptr %19, align 8, !tbaa !7
  %88 = load i64, ptr %14, align 8, !tbaa !7
  %89 = and i64 %87, %88
  %90 = icmp ne i64 %89, 0
  br i1 %90, label %91, label %92

91:                                               ; preds = %81
  store i8 0, ptr %16, align 1, !tbaa !11
  br label %92

92:                                               ; preds = %91, %81
  %93 = load i64, ptr %19, align 8, !tbaa !7
  %94 = load i64, ptr %14, align 8, !tbaa !7
  %95 = and i64 %93, %94
  %96 = load i64, ptr %14, align 8, !tbaa !7
  %97 = icmp ne i64 %95, %96
  br i1 %97, label %98, label %99

98:                                               ; preds = %92
  store i8 1, ptr %17, align 1, !tbaa !11
  br label %99

99:                                               ; preds = %98, %92
  br label %100

100:                                              ; preds = %99, %78
  %101 = load ptr, ptr %10, align 8, !tbaa !19
  %102 = icmp ne ptr %101, null
  br i1 %102, label %103, label %108

103:                                              ; preds = %100
  %104 = load i8, ptr %17, align 1, !tbaa !11, !range !13, !noundef !14
  %105 = trunc i8 %104 to i1
  %106 = load ptr, ptr %10, align 8, !tbaa !19
  %107 = zext i1 %105 to i8
  store i8 %107, ptr %106, align 1, !tbaa !11
  br label %108

108:                                              ; preds = %103, %100
  %109 = load i8, ptr %16, align 1, !tbaa !11, !range !13, !noundef !14
  %110 = trunc i8 %109 to i1
  call void @llvm.lifetime.end.p0(i64 8, ptr %19) #5
  call void @llvm.lifetime.end.p0(i64 8, ptr %18) #5
  call void @llvm.lifetime.end.p0(i64 1, ptr %17) #5
  call void @llvm.lifetime.end.p0(i64 1, ptr %16) #5
  call void @llvm.lifetime.end.p0(i64 8, ptr %15) #5
  call void @llvm.lifetime.end.p0(i64 8, ptr %14) #5
  call void @llvm.lifetime.end.p0(i64 8, ptr %13) #5
  call void @llvm.lifetime.end.p0(i64 8, ptr %12) #5
  call void @llvm.lifetime.end.p0(i64 8, ptr %11) #5
  ret i1 %110
}