; Function Attrs: nofree norecurse nounwind memory(argmem: readwrite) uwtable
define hidden zeroext i1 @_mi_bitmap_claim_across(ptr noundef captures(none) %0, i64 noundef %1, i64 noundef %2, i64 noundef %3, ptr noundef writeonly %4) local_unnamed_addr #1 {
  %6 = lshr i64 %3, 6
  %7 = and i64 %3, 63
  %8 = add i64 %7, %2
  %9 = icmp ult i64 %8, 65
  br i1 %9, label %10, label %mi_bitmap_mask_.exit24.i, !prof !21

10:                                               ; preds = %5
  %11 = icmp ugt i64 %2, 63
  br i1 %11, label %._crit_edge.thread, label %12

12:                                               ; preds = %10
  %13 = icmp eq i64 %2, 0
  br i1 %13, label %._crit_edge.thread, label %14

14:                                               ; preds = %12
  %notmask.i.i = shl nsw i64 -1, %2
  %15 = xor i64 %notmask.i.i, -1
  %16 = shl i64 %15, %7
  br label %._crit_edge.thread

mi_bitmap_mask_.exit24.i:                         ; preds = %5
  %17 = sub nuw nsw i64 64, %7
  %18 = icmp eq i64 %7, 0
  %notmask.i22.i = shl nsw i64 -1, %17
  %19 = xor i64 %notmask.i22.i, -1
  %20 = shl i64 %19, %7
  %.0.i23.i = select i1 %18, i64 -1, i64 %20
  %21 = sub i64 %2, %17
  %22 = and i64 %21, 63
  %notmask.i25.i = shl nsw i64 -1, %22
  %23 = xor i64 %notmask.i25.i, -1
  %24 = getelementptr inbounds nuw i64, ptr %0, i64 %6
  %25 = atomicrmw or ptr %24, i64 %.0.i23.i acq_rel, align 8
  %26 = and i64 %25, %.0.i23.i
  %.not = icmp eq i64 %26, 0
  %.not33 = icmp ne i64 %26, %.0.i23.i
  %.026 = zext i1 %.not33 to i8
  %.03054 = getelementptr inbounds nuw i8, ptr %24, i64 8
  %.not3455 = icmp ult i64 %21, 64
  br i1 %.not3455, label %._crit_edge, label %.lr.ph.preheader

.lr.ph.preheader:                                 ; preds = %mi_bitmap_mask_.exit24.i
  %27 = lshr i64 %21, 6
  br label %.lr.ph

._crit_edge.thread:                               ; preds = %10, %12, %14
  %.052.ph = phi i64 [ -1, %10 ], [ 0, %12 ], [ %16, %14 ]
  %28 = getelementptr inbounds nuw i64, ptr %0, i64 %6
  %29 = atomicrmw or ptr %28, i64 %.052.ph acq_rel, align 8
  %30 = and i64 %29, %.052.ph
  %.not67 = icmp eq i64 %30, 0
  %.not3368 = icmp ne i64 %30, %.052.ph
  %.02669 = zext i1 %.not3368 to i8
  br label %36

.lr.ph:                                           ; preds = %.lr.ph.preheader, %.lr.ph
  %.03059 = phi ptr [ %.030, %.lr.ph ], [ %.03054, %.lr.ph.preheader ]
  %.058 = phi i64 [ %31, %.lr.ph ], [ %27, %.lr.ph.preheader ]
  %.157 = phi i1 [ %spec.select41, %.lr.ph ], [ %.not, %.lr.ph.preheader ]
  %.12756 = phi i8 [ %.228, %.lr.ph ], [ %.026, %.lr.ph.preheader ]
  %31 = add nsw i64 %.058, -1
  %32 = atomicrmw xchg ptr %.03059, i64 -1 acq_rel, align 8
  %.not39 = icmp eq i64 %32, 0
  %spec.select41 = select i1 %.not39, i1 %.157, i1 false
  %.not40 = icmp eq i64 %32, -1
  %.228 = select i1 %.not40, i8 %.12756, i8 1
  %.030 = getelementptr inbounds nuw i8, ptr %.03059, i64 8
  %.not34 = icmp eq i64 %31, 0
  br i1 %.not34, label %._crit_edge, label %.lr.ph, !llvm.loop !23

._crit_edge:                                      ; preds = %.lr.ph, %mi_bitmap_mask_.exit24.i
  %.127.lcssa = phi i8 [ %.026, %mi_bitmap_mask_.exit24.i ], [ %.228, %.lr.ph ]
  %.1.lcssa = phi i1 [ %.not, %mi_bitmap_mask_.exit24.i ], [ %spec.select41, %.lr.ph ]
  %.030.lcssa = phi ptr [ %.03054, %mi_bitmap_mask_.exit24.i ], [ %.030, %.lr.ph ]
  %.not35 = icmp eq i64 %22, 0
  br i1 %.not35, label %36, label %33

33:                                               ; preds = %._crit_edge
  %34 = atomicrmw or ptr %.030.lcssa, i64 %23 acq_rel, align 8
  %35 = and i64 %34, %23
  %.not36 = icmp eq i64 %35, 0
  %spec.select42 = select i1 %.not36, i1 %.1.lcssa, i1 false
  %.not37 = icmp eq i64 %35, %23
  %spec.select43 = select i1 %.not37, i8 %.127.lcssa, i8 1
  br label %36

36:                                               ; preds = %._crit_edge.thread, %33, %._crit_edge
  %.329 = phi i8 [ %.127.lcssa, %._crit_edge ], [ %spec.select43, %33 ], [ %.02669, %._crit_edge.thread ]
  %.3 = phi i1 [ %.1.lcssa, %._crit_edge ], [ %spec.select42, %33 ], [ %.not67, %._crit_edge.thread ]
  %.not38 = icmp eq ptr %4, null
  br i1 %.not38, label %39, label %37

37:                                               ; preds = %36
  %38 = and i8 %.329, 1
  store i8 %38, ptr %4, align 1, !tbaa !11
  br label %39

39:                                               ; preds = %37, %36
  ret i1 %.3
}